target datalayout = "e-m:e-p270:32:32-p271:32:32-p272:64:64-i64:64-i128:128-f80:128-n8:16:32:64-S128"
target triple = "x86_64-pc-linux-gnu"

%"class.pstd::pmr::polymorphic_allocator" = type { ptr }
%"class.std::__cxx11::basic_string" = type { %"struct.std::__cxx11::basic_string<char>::_Alloc_hider", i64, %union.anon }
%"struct.std::__cxx11::basic_string<char>::_Alloc_hider" = type { ptr }
%union.anon = type { i64, [8 x i8] }
%"class.pbrt::ParameterDictionary" = type <{ %"class.pbrt::InlinedVector", ptr, i32, [4 x i8] }>
%"struct.pbrt::FileLoc" = type { %"class.std::basic_string_view", i32, i32 }
%"class.std::basic_string_view" = type { i64, ptr }
%"class.pbrt::InlinedVector" = type { %"class.pstd::pmr::polymorphic_allocator.5", ptr, %union.anon.6, i64, i64 }
%"class.pstd::pmr::polymorphic_allocator.5" = type { ptr }
%union.anon.6 = type { [8 x ptr] }
%"struct.std::_Rb_tree_header" = type { %"struct.std::_Rb_tree_node_base", i64 }
%"struct.std::_Rb_tree_node_base" = type { i32, ptr, ptr, ptr }
%"struct.std::_Vector_base.24" = type { %"struct.std::_Vector_base<pbrt::ShapeSceneEntity, std::allocator<pbrt::ShapeSceneEntity>>::_Vector_impl" }
%"struct.std::_Vector_base<pbrt::ShapeSceneEntity, std::allocator<pbrt::ShapeSceneEntity>>::_Vector_impl" = type { %"struct.std::_Vector_base<pbrt::ShapeSceneEntity, std::allocator<pbrt::ShapeSceneEntity>>::_Vector_impl_data" }
%"struct.std::_Vector_base<pbrt::ShapeSceneEntity, std::allocator<pbrt::ShapeSceneEntity>>::_Vector_impl_data" = type { ptr, ptr, ptr }
%"struct.pbrt::SceneEntity" = type { %"class.pbrt::InternedString", %"struct.pbrt::FileLoc", %"class.pbrt::ParameterDictionary" }
%"class.pbrt::InternedString" = type { ptr }
%"struct.pbrt::ShapeSceneEntity" = type { %"struct.pbrt::SceneEntity", ptr, ptr, i8, i32, %"class.std::__cxx11::basic_string", i32, %"class.std::__cxx11::basic_string", %"class.std::__cxx11::basic_string" }
%"struct.pbrt::NamedTextures" = type { %"class.std::map.191", %"class.std::map.196", %"class.std::map.196", %"class.std::map.196" }
%"class.std::map.191" = type { %"class.std::_Rb_tree.192" }
%"class.std::_Rb_tree.192" = type { %"struct.std::_Rb_tree<std::__cxx11::basic_string<char>, std::pair<const std::__cxx11::basic_string<char>, pbrt::FloatTexture>, std::_Select1st<std::pair<const std::__cxx11::basic_string<char>, pbrt::FloatTexture>>, std::less<std::__cxx11::basic_string<char>>>::_Rb_tree_impl" }
%"struct.std::_Rb_tree<std::__cxx11::basic_string<char>, std::pair<const std::__cxx11::basic_string<char>, pbrt::FloatTexture>, std::_Select1st<std::pair<const std::__cxx11::basic_string<char>, pbrt::FloatTexture>>, std::less<std::__cxx11::basic_string<char>>>::_Rb_tree_impl" = type { [8 x i8], %"struct.std::_Rb_tree_header" }
%"class.std::map.196" = type { %"class.std::_Rb_tree.197" }
%"class.std::_Rb_tree.197" = type { %"struct.std::_Rb_tree<std::__cxx11::basic_string<char>, std::pair<const std::__cxx11::basic_string<char>, pbrt::SpectrumTexture>, std::_Select1st<std::pair<const std::__cxx11::basic_string<char>, pbrt::SpectrumTexture>>, std::less<std::__cxx11::basic_string<char>>>::_Rb_tree_impl" }
%"struct.std::_Rb_tree<std::__cxx11::basic_string<char>, std::pair<const std::__cxx11::basic_string<char>, pbrt::SpectrumTexture>, std::_Select1st<std::pair<const std::__cxx11::basic_string<char>, pbrt::SpectrumTexture>>, std::less<std::__cxx11::basic_string<char>>>::_Rb_tree_impl" = type { [8 x i8], %"struct.std::_Rb_tree_header" }
%"class.pstd::vector.235" = type { %"class.pstd::pmr::polymorphic_allocator.236", ptr, i64, i64 }
%"class.pstd::pmr::polymorphic_allocator.236" = type { ptr }
%"class.pstd::vector.416" = type { %"class.pstd::pmr::polymorphic_allocator.417", ptr, i64, i64 }
%"class.pstd::pmr::polymorphic_allocator.417" = type { ptr }
%class.anon.418 = type { ptr, ptr, ptr, ptr }

; Function Attrs: mustprogress nounwind uwtable
define linkonce_odr dso_local noundef nonnull align 8 dereferenceable(32) ptr @_ZN4pstd6vectorINS0_IN4pbrt5ShapeENS_3pmr21polymorphic_allocatorIS2_EEEENS4_IS6_EEEixEm(ptr noundef nonnull align 8 dereferenceable(32) %0, i64 noundef %1) #7 comdat align 2 {
  %3 = alloca ptr, align 8
  %4 = alloca i64, align 8
  store ptr %0, ptr %3, align 8, !tbaa !629
  store i64 %1, ptr %4, align 8, !tbaa !166
  %5 = load ptr, ptr %3, align 8
  br label %6

6:                                                ; preds = %2
  br label %7

7:                                                ; preds = %6
  %8 = getelementptr inbounds nuw %"class.pstd::vector.416", ptr %5, i32 0, i32 1
  %9 = load ptr, ptr %8, align 8, !tbaa !1511
  %10 = load i64, ptr %4, align 8, !tbaa !166
  %11 = getelementptr inbounds nuw %"class.pstd::vector.235", ptr %9, i64 %10
  ret ptr %11
}

; Function Attrs: mustprogress nounwind uwtable
define linkonce_odr dso_local noundef nonnull align 8 dereferenceable(32) ptr @_ZNK4pbrt14InternedStringcvRKNSt7__cxx1112basic_stringIcSt11char_traitsIcESaIcEEEEv(ptr noundef nonnull align 8 dereferenceable(8) %0) #7 comdat align 2 {
  %2 = alloca ptr, align 8
  store ptr %0, ptr %2, align 8, !tbaa !162
  %3 = load ptr, ptr %2, align 8
  %4 = getelementptr inbounds nuw %"class.pbrt::InternedString", ptr %3, i32 0, i32 0
  %5 = load ptr, ptr %4, align 8, !tbaa !164
  ret ptr %5
}

; Function Attrs: mustprogress nounwind uwtable
define linkonce_odr dso_local noundef nonnull align 8 dereferenceable(272) ptr @_ZNSt6vectorIN4pbrt16ShapeSceneEntityESaIS1_EEixEm(ptr noundef nonnull align 8 dereferenceable(24) %0, i64 noundef %1) #7 comdat align 2 {
  %3 = alloca ptr, align 8
  %4 = alloca i64, align 8
  store ptr %0, ptr %3, align 8, !tbaa !154
  store i64 %1, ptr %4, align 8, !tbaa !166
  %5 = load ptr, ptr %3, align 8
  %6 = getelementptr inbounds nuw %"struct.std::_Vector_base.24", ptr %5, i32 0, i32 0
  %7 = getelementptr inbounds nuw %"struct.std::_Vector_base<pbrt::ShapeSceneEntity, std::allocator<pbrt::ShapeSceneEntity>>::_Vector_impl_data", ptr %6, i32 0, i32 0
  %8 = load ptr, ptr %7, align 8, !tbaa !170
  %9 = load i64, ptr %4, align 8, !tbaa !166
  %10 = getelementptr inbounds nuw %"struct.pbrt::ShapeSceneEntity", ptr %8, i64 %9
  ret ptr %10
}

; Function Attrs: inlinehint mustprogress uwtable
define internal void @"_ZZZN4pbrt10BasicScene15CreateAggregateERKNS_13NamedTexturesERKSt3mapIiPN4pstd6vectorINS_5LightENS5_3pmr21polymorphic_allocatorIS7_EEEESt4lessIiESaISt4pairIKiSC_EEERKS4_INSt7__cxx1112basic_stringIcSt11char_traitsIcESaIcEEENS_6MediumESD_ISR_ESaISF_IKSR_SS_EEERKS4_ISR_NS_8MaterialEST_SaISF_ISU_S10_EEERKSt6vectorIS10_SaIS10_EEENK3$_0clERS16_INS_16ShapeSceneEntityESaIS1C_EEENKUllE_clEl"(ptr noundef nonnull align 8 dereferenceable(32) %0, i64 noundef %1) #8 align 2 personality ptr @__gxx_personality_v0 {
  %3 = alloca ptr, align 8
  %4 = alloca i64, align 8
  %5 = alloca ptr, align 8
  %6 = alloca %"class.pstd::vector.235", align 8
  %7 = alloca %"class.pstd::pmr::polymorphic_allocator", align 8
  %8 = alloca ptr, align 8
  %9 = alloca i32, align 4
  store ptr %0, ptr %3, align 8, !tbaa !13
  store i64 %1, ptr %4, align 8, !tbaa !166
  %10 = load ptr, ptr %3, align 8
  call void @llvm.lifetime.start.p0(i64 8, ptr %5) #6
  %11 = getelementptr inbounds nuw %class.anon.418, ptr %10, i32 0, i32 0
  %12 = load ptr, ptr %11, align 8, !tbaa !1540
  %13 = load i64, ptr %4, align 8, !tbaa !166
  %14 = call noundef nonnull align 8 dereferenceable(272) ptr @_ZNSt6vectorIN4pbrt16ShapeSceneEntityESaIS1_EEixEm(ptr noundef nonnull align 8 dereferenceable(24) %12, i64 noundef %13) #6
  store ptr %14, ptr %5, align 8, !tbaa !333
  call void @llvm.lifetime.start.p0(i64 32, ptr %6) #6
  %15 = load ptr, ptr %5, align 8, !tbaa !333
  %16 = getelementptr inbounds nuw %"struct.pbrt::SceneEntity", ptr %15, i32 0, i32 0
  %17 = call noundef nonnull align 8 dereferenceable(32) ptr @_ZNK4pbrt14InternedStringcvRKNSt7__cxx1112basic_stringIcSt11char_traitsIcESaIcEEEEv(ptr noundef nonnull align 8 dereferenceable(8) %16)
  %18 = load ptr, ptr %5, align 8, !tbaa !333
  %19 = getelementptr inbounds nuw %"struct.pbrt::ShapeSceneEntity", ptr %18, i32 0, i32 1
  %20 = load ptr, ptr %19, align 8, !tbaa !334
  %21 = load ptr, ptr %5, align 8, !tbaa !333
  %22 = getelementptr inbounds nuw %"struct.pbrt::ShapeSceneEntity", ptr %21, i32 0, i32 2
  %23 = load ptr, ptr %22, align 8, !tbaa !336
  %24 = load ptr, ptr %5, align 8, !tbaa !333
  %25 = getelementptr inbounds nuw %"struct.pbrt::ShapeSceneEntity", ptr %24, i32 0, i32 3
  %26 = load i8, ptr %25, align 8, !tbaa !337, !range !177, !noundef !178
  %27 = trunc i8 %26 to i1
  %28 = load ptr, ptr %5, align 8, !tbaa !333
  %29 = getelementptr inbounds nuw %"struct.pbrt::SceneEntity", ptr %28, i32 0, i32 2
  %30 = getelementptr inbounds nuw %class.anon.418, ptr %10, i32 0, i32 2
  %31 = load ptr, ptr %30, align 8, !tbaa !1542
  %32 = getelementptr inbounds nuw %"struct.pbrt::NamedTextures", ptr %31, i32 0, i32 0
  %33 = load ptr, ptr %5, align 8, !tbaa !333
  %34 = getelementptr inbounds nuw %"struct.pbrt::SceneEntity", ptr %33, i32 0, i32 1
  %35 = getelementptr inbounds nuw %class.anon.418, ptr %10, i32 0, i32 3
  %36 = load ptr, ptr %35, align 8, !tbaa !1543
  call void @llvm.memcpy.p0.p0.i64(ptr align 8 %7, ptr align 8 %36, i64 8, i1 false), !tbaa.struct !77
  %37 = getelementptr inbounds nuw %"class.pstd::pmr::polymorphic_allocator", ptr %7, i32 0, i32 0
  %38 = load ptr, ptr %37, align 8
  %39 = ptrtoint ptr %38 to i64
  call void @_ZN4pbrt5Shape6CreateERKNSt7__cxx1112basic_stringIcSt11char_traitsIcESaIcEEEPKNS_9TransformESB_bRKNS_19ParameterDictionaryERKSt3mapIS6_NS_12FloatTextureESt4lessIS6_ESaISt4pairIS7_SG_EEEPKNS_7FileLocEN4pstd3pmr21polymorphic_allocatorISt4byteEE(ptr dead_on_unwind writable sret(%"class.pstd::vector.235") align 8 %6, ptr noundef nonnull align 8 dereferenceable(32) %17, ptr noundef %20, ptr noundef %23, i1 noundef zeroext %27, ptr noundef nonnull align 8 dereferenceable(108) %29, ptr noundef nonnull align 8 dereferenceable(48) %32, ptr noundef %34, i64 %39)
  %40 = getelementptr inbounds nuw %class.anon.418, ptr %10, i32 0, i32 1
  %41 = load ptr, ptr %40, align 8, !tbaa !1544
  %42 = load i64, ptr %4, align 8, !tbaa !166
  %43 = invoke noundef nonnull align 8 dereferenceable(32) ptr @_ZN4pstd6vectorINS0_IN4pbrt5ShapeENS_3pmr21polymorphic_allocatorIS2_EEEENS4_IS6_EEEixEm(ptr noundef nonnull align 8 dereferenceable(32) %41, i64 noundef %42)
          to label %44 unwind label %47

44:                                               ; preds = %2
  %45 = invoke noundef nonnull align 8 dereferenceable(32) ptr @_ZN4pstd6vectorIN4pbrt5ShapeENS_3pmr21polymorphic_allocatorIS2_EEEaSEOS6_(ptr noundef nonnull align 8 dereferenceable(32) %43, ptr noundef nonnull align 8 dereferenceable(32) %6)
          to label %46 unwind label %47

46:                                               ; preds = %44
  call void @_ZN4pstd6vectorIN4pbrt5ShapeENS_3pmr21polymorphic_allocatorIS2_EEED2Ev(ptr noundef nonnull align 8 dereferenceable(32) %6) #6
  call void @llvm.lifetime.end.p0(i64 32, ptr %6) #6
  call void @llvm.lifetime.end.p0(i64 8, ptr %5) #6
  ret void

47:                                               ; preds = %44, %2
  %48 = landingpad { ptr, i32 }
          cleanup
  %49 = extractvalue { ptr, i32 } %48, 0
  store ptr %49, ptr %8, align 8
  %50 = extractvalue { ptr, i32 } %48, 1
  store i32 %50, ptr %9, align 4
  call void @_ZN4pstd6vectorIN4pbrt5ShapeENS_3pmr21polymorphic_allocatorIS2_EEED2Ev(ptr noundef nonnull align 8 dereferenceable(32) %6) #6
  call void @llvm.lifetime.end.p0(i64 32, ptr %6) #6
  call void @llvm.lifetime.end.p0(i64 8, ptr %5) #6
  br label %51

51:                                               ; preds = %47
  %52 = load ptr, ptr %8, align 8
  %53 = load i32, ptr %9, align 4
  %54 = insertvalue { ptr, i32 } poison, ptr %52, 0
  %55 = insertvalue { ptr, i32 } %54, i32 %53, 1
  resume { ptr, i32 } %55
}

; Function Attrs: mustprogress nounwind uwtable
define linkonce_odr dso_local noundef ptr @_ZNKSt9_Any_data9_M_accessEv(ptr noundef nonnull align 8 dereferenceable(16) %0) #7 comdat align 2 {
  %2 = alloca ptr, align 8
  store ptr %0, ptr %2, align 8, !tbaa !1003
  %3 = load ptr, ptr %2, align 8
  %4 = getelementptr inbounds [16 x i8], ptr %3, i64 0, i64 0
  ret ptr %4
}

; Function Attrs: mustprogress uwtable
define internal void @"_ZSt13__invoke_implIvRZZN4pbrt10BasicScene15CreateAggregateERKNS0_13NamedTexturesERKSt3mapIiPN4pstd6vectorINS0_5LightENS6_3pmr21polymorphic_allocatorIS8_EEEESt4lessIiESaISt4pairIKiSD_EEERKS5_INSt7__cxx1112basic_stringIcSt11char_traitsIcESaIcEEENS0_6MediumESE_ISS_ESaISG_IKSS_ST_EEERKS5_ISS_NS0_8MaterialESU_SaISG_ISV_S11_EEERKSt6vectorIS11_SaIS11_EEENK3$_0clERS17_INS0_16ShapeSceneEntityESaIS1D_EEEUllE_JlEET_St14__invoke_otherOT0_DpOT1_"(ptr noundef nonnull align 8 dereferenceable(32) %0, ptr noundef nonnull align 8 dereferenceable(8) %1) #1 {
  %3 = alloca ptr, align 8
  %4 = alloca ptr, align 8
  store ptr %0, ptr %3, align 8, !tbaa !13
  store ptr %1, ptr %4, align 8, !tbaa !521
  %5 = load ptr, ptr %3, align 8, !tbaa !13
  %6 = load ptr, ptr %4, align 8, !tbaa !521
  %7 = load i64, ptr %6, align 8, !tbaa !166
  call void @"_ZZZN4pbrt10BasicScene15CreateAggregateERKNS_13NamedTexturesERKSt3mapIiPN4pstd6vectorINS_5LightENS5_3pmr21polymorphic_allocatorIS7_EEEESt4lessIiESaISt4pairIKiSC_EEERKS4_INSt7__cxx1112basic_stringIcSt11char_traitsIcESaIcEEENS_6MediumESD_ISR_ESaISF_IKSR_SS_EEERKS4_ISR_NS_8MaterialEST_SaISF_ISU_S10_EEERKSt6vectorIS10_SaIS10_EEENK3$_0clERS16_INS_16ShapeSceneEntityESaIS1C_EEENKUllE_clEl"(ptr noundef nonnull align 8 dereferenceable(32) %5, i64 noundef %7)
  ret void
}

; Function Attrs: mustprogress nounwind uwtable
define internal noundef nonnull align 8 dereferenceable(8) ptr @"_ZNKSt9_Any_data9_M_accessIPZZN4pbrt10BasicScene15CreateAggregateERKNS1_13NamedTexturesERKSt3mapIiPN4pstd6vectorINS1_5LightENS7_3pmr21polymorphic_allocatorIS9_EEEESt4lessIiESaISt4pairIKiSE_EEERKS6_INSt7__cxx1112basic_stringIcSt11char_traitsIcESaIcEEENS1_6MediumESF_IST_ESaISH_IKST_SU_EEERKS6_IST_NS1_8MaterialESV_SaISH_ISW_S12_EEERKSt6vectorIS12_SaIS12_EEENK3$_0clERS18_INS1_16ShapeSceneEntityESaIS1E_EEEUllE_EERKT_v"(ptr noundef nonnull align 8 dereferenceable(16) %0) #7 align 2 {
  %2 = alloca ptr, align 8
  store ptr %0, ptr %2, align 8, !tbaa !1003
  %3 = load ptr, ptr %2, align 8
  %4 = call noundef ptr @_ZNKSt9_Any_data9_M_accessEv(ptr noundef nonnull align 8 dereferenceable(16) %3) #6
  ret ptr %4
}

; Function Attrs: mustprogress uwtable
define internal void @"_ZSt10__invoke_rIvRZZN4pbrt10BasicScene15CreateAggregateERKNS0_13NamedTexturesERKSt3mapIiPN4pstd6vectorINS0_5LightENS6_3pmr21polymorphic_allocatorIS8_EEEESt4lessIiESaISt4pairIKiSD_EEERKS5_INSt7__cxx1112basic_stringIcSt11char_traitsIcESaIcEEENS0_6MediumESE_ISS_ESaISG_IKSS_ST_EEERKS5_ISS_NS0_8MaterialESU_SaISG_ISV_S11_EEERKSt6vectorIS11_SaIS11_EEENK3$_0clERS17_INS0_16ShapeSceneEntityESaIS1D_EEEUllE_JlEENSt9enable_ifIX16is_invocable_r_vIT_T0_DpT1_EES1K_E4typeEOS1L_DpOS1M_"(ptr noundef nonnull align 8 dereferenceable(32) %0, ptr noundef nonnull align 8 dereferenceable(8) %1) #1 {
  %3 = alloca ptr, align 8
  %4 = alloca ptr, align 8
  store ptr %0, ptr %3, align 8, !tbaa !13
  store ptr %1, ptr %4, align 8, !tbaa !521
  %5 = load ptr, ptr %3, align 8, !tbaa !13
  %6 = load ptr, ptr %4, align 8, !tbaa !521
  call void @"_ZSt13__invoke_implIvRZZN4pbrt10BasicScene15CreateAggregateERKNS0_13NamedTexturesERKSt3mapIiPN4pstd6vectorINS0_5LightENS6_3pmr21polymorphic_allocatorIS8_EEEESt4lessIiESaISt4pairIKiSD_EEERKS5_INSt7__cxx1112basic_stringIcSt11char_traitsIcESaIcEEENS0_6MediumESE_ISS_ESaISG_IKSS_ST_EEERKS5_ISS_NS0_8MaterialESU_SaISG_ISV_S11_EEERKSt6vectorIS11_SaIS11_EEENK3$_0clERS17_INS0_16ShapeSceneEntityESaIS1D_EEEUllE_JlEET_St14__invoke_otherOT0_DpOT1_"(ptr noundef nonnull align 8 dereferenceable(32) %5, ptr noundef nonnull align 8 dereferenceable(8) %6)
  ret void
}

; Function Attrs: mustprogress nounwind uwtable
define internal noundef ptr @"_ZNSt14_Function_base13_Base_managerIZZN4pbrt10BasicScene15CreateAggregateERKNS1_13NamedTexturesERKSt3mapIiPN4pstd6vectorINS1_5LightENS7_3pmr21polymorphic_allocatorIS9_EEEESt4lessIiESaISt4pairIKiSE_EEERKS6_INSt7__cxx1112basic_stringIcSt11char_traitsIcESaIcEEENS1_6MediumESF_IST_ESaISH_IKST_SU_EEERKS6_IST_NS1_8MaterialESV_SaISH_ISW_S12_EEERKSt6vectorIS12_SaIS12_EEENK3$_0clERS18_INS1_16ShapeSceneEntityESaIS1E_EEEUllE_E14_M_get_pointerERKSt9_Any_data"(ptr noundef nonnull align 8 dereferenceable(16) %0) #7 align 2 {
  %2 = alloca ptr, align 8
  store ptr %0, ptr %2, align 8, !tbaa !1003
  %3 = load ptr, ptr %2, align 8, !tbaa !1003
  %4 = call noundef nonnull align 8 dereferenceable(8) ptr @"_ZNKSt9_Any_data9_M_accessIPZZN4pbrt10BasicScene15CreateAggregateERKNS1_13NamedTexturesERKSt3mapIiPN4pstd6vectorINS1_5LightENS7_3pmr21polymorphic_allocatorIS9_EEEESt4lessIiESaISt4pairIKiSE_EEERKS6_INSt7__cxx1112basic_stringIcSt11char_traitsIcESaIcEEENS1_6MediumESF_IST_ESaISH_IKST_SU_EEERKS6_IST_NS1_8MaterialESV_SaISH_ISW_S12_EEERKSt6vectorIS12_SaIS12_EEENK3$_0clERS18_INS1_16ShapeSceneEntityESaIS1E_EEEUllE_EERKT_v"(ptr noundef nonnull align 8 dereferenceable(16) %3) #6
  %5 = load ptr, ptr %4, align 8, !tbaa !13
  ret ptr %5
}

; Function Attrs: mustprogress uwtable
define internal void @"_ZNSt17_Function_handlerIFvlEZZN4pbrt10BasicScene15CreateAggregateERKNS1_13NamedTexturesERKSt3mapIiPN4pstd6vectorINS1_5LightENS7_3pmr21polymorphic_allocatorIS9_EEEESt4lessIiESaISt4pairIKiSE_EEERKS6_INSt7__cxx1112basic_stringIcSt11char_traitsIcESaIcEEENS1_6MediumESF_IST_ESaISH_IKST_SU_EEERKS6_IST_NS1_8MaterialESV_SaISH_ISW_S12_EEERKSt6vectorIS12_SaIS12_EEENK3$_0clERS18_INS1_16ShapeSceneEntityESaIS1E_EEEUllE_E9_M_invokeERKSt9_Any_dataOl"(ptr noundef nonnull align 8 dereferenceable(16) %0, ptr noundef nonnull align 8 dereferenceable(8) %1) #1 align 2 {
  %3 = alloca ptr, align 8
  %4 = alloca ptr, align 8
  store ptr %0, ptr %3, align 8, !tbaa !1003
  store ptr %1, ptr %4, align 8, !tbaa !521
  %5 = load ptr, ptr %3, align 8, !tbaa !1003
  %6 = call noundef ptr @"_ZNSt14_Function_base13_Base_managerIZZN4pbrt10BasicScene15CreateAggregateERKNS1_13NamedTexturesERKSt3mapIiPN4pstd6vectorINS1_5LightENS7_3pmr21polymorphic_allocatorIS9_EEEESt4lessIiESaISt4pairIKiSE_EEERKS6_INSt7__cxx1112basic_stringIcSt11char_traitsIcESaIcEEENS1_6MediumESF_IST_ESaISH_IKST_SU_EEERKS6_IST_NS1_8MaterialESV_SaISH_ISW_S12_EEERKSt6vectorIS12_SaIS12_EEENK3$_0clERS18_INS1_16ShapeSceneEntityESaIS1E_EEEUllE_E14_M_get_pointerERKSt9_Any_data"(ptr noundef nonnull align 8 dereferenceable(16) %5) #6
  %7 = load ptr, ptr %4, align 8, !tbaa !521
  call void @"_ZSt10__invoke_rIvRZZN4pbrt10BasicScene15CreateAggregateERKNS0_13NamedTexturesERKSt3mapIiPN4pstd6vectorINS0_5LightENS6_3pmr21polymorphic_allocatorIS8_EEEESt4lessIiESaISt4pairIKiSD_EEERKS5_INSt7__cxx1112basic_stringIcSt11char_traitsIcESaIcEEENS0_6MediumESE_ISS_ESaISG_IKSS_ST_EEERKS5_ISS_NS0_8MaterialESU_SaISG_ISV_S11_EEERKSt6vectorIS11_SaIS11_EEENK3$_0clERS17_INS0_16ShapeSceneEntityESaIS1D_EEEUllE_JlEENSt9enable_ifIX16is_invocable_r_vIT_T0_DpT1_EES1K_E4typeEOS1L_DpOS1M_"(ptr noundef nonnull align 8 dereferenceable(32) %6, ptr noundef nonnull align 8 dereferenceable(8) %7)
  ret void
}