; Function Attrs: mustprogress uwtable
define internal void @"_ZNSt17_Function_handlerIFvlEZZN4pbrt10BasicScene15CreateAggregateERKNS1_13NamedTexturesERKSt3mapIiPN4pstd6vectorINS1_5LightENS7_3pmr21polymorphic_allocatorIS9_EEEESt4lessIiESaISt4pairIKiSE_EEERKS6_INSt7__cxx1112basic_stringIcSt11char_traitsIcESaIcEEENS1_6MediumESF_IST_ESaISH_IKST_SU_EEERKS6_IST_NS1_8MaterialESV_SaISH_ISW_S12_EEERKSt6vectorIS12_SaIS12_EEENK3$_0clERS18_INS1_16ShapeSceneEntityESaIS1E_EEEUllE_E9_M_invokeERKSt9_Any_dataOl"(ptr noundef nonnull readonly align 8 captures(none) dereferenceable(16) %0, ptr noundef nonnull readonly align 8 captures(none) dereferenceable(8) %1) #5 align 2 personality ptr @__gxx_personality_v0 {
  %3 = alloca %"class.pstd::vector.235", align 8
  %.val = load ptr, ptr %0, align 8, !tbaa !792
  %.val2 = load i64, ptr %1, align 8, !tbaa !156
  %4 = load ptr, ptr %.val, align 8, !tbaa !1289
  %5 = load ptr, ptr %4, align 8, !tbaa !160
  %6 = getelementptr inbounds nuw %"struct.pbrt::ShapeSceneEntity", ptr %5, i64 %.val2
  call void @llvm.lifetime.start.p0(i64 32, ptr nonnull %3) #35
  %7 = load ptr, ptr %6, align 8, !tbaa !154
  %8 = getelementptr inbounds nuw i8, ptr %6, i64 144
  %9 = load ptr, ptr %8, align 8, !tbaa !434
  %10 = getelementptr inbounds nuw i8, ptr %6, i64 152
  %11 = load ptr, ptr %10, align 8, !tbaa !436
  %12 = getelementptr inbounds nuw i8, ptr %6, i64 160
  %13 = load i8, ptr %12, align 8, !tbaa !437, !range !168, !noundef !169
  %14 = trunc nuw i8 %13 to i1
  %15 = getelementptr inbounds nuw i8, ptr %6, i64 32
  %16 = getelementptr inbounds nuw i8, ptr %.val, i64 16
  %17 = load ptr, ptr %16, align 8, !tbaa !1291
  %18 = getelementptr inbounds nuw i8, ptr %6, i64 8
  %19 = getelementptr inbounds nuw i8, ptr %.val, i64 24
  %20 = load ptr, ptr %19, align 8, !tbaa !1292
  %.sroa.0.0.copyload.i.i.i = load ptr, ptr %20, align 8, !tbaa !53
  %21 = ptrtoint ptr %.sroa.0.0.copyload.i.i.i to i64
  call void @_ZN4pbrt5Shape6CreateERKNSt7__cxx1112basic_stringIcSt11char_traitsIcESaIcEEEPKNS_9TransformESB_bRKNS_19ParameterDictionaryERKSt3mapIS6_NS_12FloatTextureESt4lessIS6_ESaISt4pairIS7_SG_EEEPKNS_7FileLocEN4pstd3pmr21polymorphic_allocatorISt4byteEE(ptr dead_on_unwind nonnull writable sret(%"class.pstd::vector.235") align 8 %3, ptr noundef nonnull align 8 dereferenceable(32) %7, ptr noundef %9, ptr noundef %11, i1 noundef zeroext %14, ptr noundef nonnull align 8 dereferenceable(108) %15, ptr noundef nonnull align 8 dereferenceable(48) %17, ptr noundef nonnull %18, i64 %21)
  %22 = getelementptr inbounds nuw i8, ptr %.val, i64 8
  %23 = load ptr, ptr %22, align 8, !tbaa !1293
  %24 = getelementptr inbounds nuw i8, ptr %23, i64 8
  %25 = load ptr, ptr %24, align 8, !tbaa !845
  %26 = getelementptr inbounds nuw %"class.pstd::vector.235", ptr %25, i64 %.val2
  %27 = invoke noundef nonnull align 8 dereferenceable(32) ptr @_ZN4pstd6vectorIN4pbrt5ShapeENS_3pmr21polymorphic_allocatorIS2_EEEaSEOS6_(ptr noundef nonnull align 8 dereferenceable(32) %26, ptr noundef nonnull align 8 dereferenceable(32) %3)
          to label %28 unwind label %43

28:                                               ; preds = %2
  %29 = getelementptr inbounds nuw i8, ptr %3, i64 24
  store i64 0, ptr %29, align 8, !tbaa !756
  %30 = getelementptr inbounds nuw i8, ptr %3, i64 8
  %31 = load ptr, ptr %30, align 8, !tbaa !752
  %.not.i.i.i.i.i.i.i = icmp eq ptr %31, null
  br i1 %.not.i.i.i.i.i.i.i, label %"_ZSt10__invoke_rIvRZZN4pbrt10BasicScene15CreateAggregateERKNS0_13NamedTexturesERKSt3mapIiPN4pstd6vectorINS0_5LightENS6_3pmr21polymorphic_allocatorIS8_EEEESt4lessIiESaISt4pairIKiSD_EEERKS5_INSt7__cxx1112basic_stringIcSt11char_traitsIcESaIcEEENS0_6MediumESE_ISS_ESaISG_IKSS_ST_EEERKS5_ISS_NS0_8MaterialESU_SaISG_ISV_S11_EEERKSt6vectorIS11_SaIS11_EEENK3$_0clERS17_INS0_16ShapeSceneEntityESaIS1D_EEEUllE_JlEENSt9enable_ifIX16is_invocable_r_vIT_T0_DpT1_EES1K_E4typeEOS1L_DpOS1M_.exit", label %32

32:                                               ; preds = %28
  %33 = getelementptr inbounds nuw i8, ptr %3, i64 16
  %34 = load i64, ptr %33, align 8, !tbaa !769
  %35 = shl i64 %34, 3
  %36 = load ptr, ptr %3, align 8, !tbaa !770
  %37 = load ptr, ptr %36, align 8, !tbaa !17
  %38 = getelementptr inbounds nuw i8, ptr %37, i64 24
  %39 = load ptr, ptr %38, align 8
  invoke void %39(ptr noundef nonnull align 8 dereferenceable(8) %36, ptr noundef nonnull %31, i64 noundef %35, i64 noundef 8)
          to label %"_ZSt10__invoke_rIvRZZN4pbrt10BasicScene15CreateAggregateERKNS0_13NamedTexturesERKSt3mapIiPN4pstd6vectorINS0_5LightENS6_3pmr21polymorphic_allocatorIS8_EEEESt4lessIiESaISt4pairIKiSD_EEERKS5_INSt7__cxx1112basic_stringIcSt11char_traitsIcESaIcEEENS0_6MediumESE_ISS_ESaISG_IKSS_ST_EEERKS5_ISS_NS0_8MaterialESU_SaISG_ISV_S11_EEERKSt6vectorIS11_SaIS11_EEENK3$_0clERS17_INS0_16ShapeSceneEntityESaIS1D_EEEUllE_JlEENSt9enable_ifIX16is_invocable_r_vIT_T0_DpT1_EES1K_E4typeEOS1L_DpOS1M_.exit" unwind label %40

40:                                               ; preds = %32
  %41 = landingpad { ptr, i32 }
          catch ptr null
  %42 = extractvalue { ptr, i32 } %41, 0
  call void @__clang_call_terminate(ptr %42) #34
  unreachable

43:                                               ; preds = %2
  %44 = landingpad { ptr, i32 }
          cleanup
  call void @_ZN4pstd6vectorIN4pbrt5ShapeENS_3pmr21polymorphic_allocatorIS2_EEED2Ev(ptr noundef nonnull align 8 dereferenceable(32) %3) #35
  call void @llvm.lifetime.end.p0(i64 32, ptr nonnull %3) #35
  resume { ptr, i32 } %44

"_ZSt10__invoke_rIvRZZN4pbrt10BasicScene15CreateAggregateERKNS0_13NamedTexturesERKSt3mapIiPN4pstd6vectorINS0_5LightENS6_3pmr21polymorphic_allocatorIS8_EEEESt4lessIiESaISt4pairIKiSD_EEERKS5_INSt7__cxx1112basic_stringIcSt11char_traitsIcESaIcEEENS0_6MediumESE_ISS_ESaISG_IKSS_ST_EEERKS5_ISS_NS0_8MaterialESU_SaISG_ISV_S11_EEERKSt6vectorIS11_SaIS11_EEENK3$_0clERS17_INS0_16ShapeSceneEntityESaIS1D_EEEUllE_JlEENSt9enable_ifIX16is_invocable_r_vIT_T0_DpT1_EES1K_E4typeEOS1L_DpOS1M_.exit": ; preds = %28, %32
  call void @llvm.lifetime.end.p0(i64 32, ptr nonnull %3) #35
  ret void
}